; Function Attrs: mustprogress uwtable
define internal void @_ZL19handshaker_shutdownP14tsi_handshaker(ptr noundef %0) #3 personality ptr @__gxx_personality_v0 {
  %2 = alloca %"class.absl::lts_20240722::log_internal::LogMessageFatal", align 8
  %.not.i = icmp eq ptr %0, null
  br i1 %.not.i, label %8, label %3, !prof !27

3:                                                ; preds = %1
  %4 = getelementptr inbounds nuw i8, ptr %0, i64 104
  tail call void @_ZN4absl12lts_202407225Mutex4LockEv(ptr noundef nonnull align 8 dereferenceable(8) %4)
  %5 = getelementptr inbounds nuw i8, ptr %0, i64 120
  %6 = load i8, ptr %5, align 8, !tbaa !50, !range !62, !noundef !63
  %7 = trunc nuw i8 %6 to i1
  br i1 %7, label %23, label %13

8:                                                ; preds = %1
  %9 = tail call noundef nonnull ptr @_ZN4absl12lts_2024072212log_internal17MakeCheckOpStringIPKvS4_EEPNSt7__cxx1112basic_stringIcSt11char_traitsIcESaIcEEET_T0_PKc(ptr noundef null, ptr noundef null, ptr noundef nonnull @.str.51)
  call void @llvm.lifetime.start.p0(i64 16, ptr nonnull %2) #29
  %10 = load ptr, ptr %9, align 8, !tbaa !64
  %11 = getelementptr inbounds nuw i8, ptr %9, i64 8
  %12 = load i64, ptr %11, align 8, !tbaa !67
  call void @_ZN4absl12lts_2024072212log_internal15LogMessageFatalC1EPKciSt17basic_string_viewIcSt11char_traitsIcEE(ptr noundef nonnull align 8 dereferenceable(16) %2, ptr noundef nonnull @.str, i32 noundef 594, i64 %12, ptr %10) #30
  call void @_ZN4absl12lts_2024072212log_internal15LogMessageFatalD1Ev(ptr noundef nonnull align 8 dereferenceable(16) %2) #32
  unreachable

13:                                               ; preds = %3
  %14 = getelementptr inbounds nuw i8, ptr %0, i64 112
  %15 = load ptr, ptr %14, align 8, !tbaa !82
  %.not9 = icmp eq ptr %15, null
  br i1 %.not9, label %22, label %16

16:                                               ; preds = %13
  invoke void @_Z31alts_handshaker_client_shutdownP22alts_handshaker_client(ptr noundef nonnull %15)
          to label %22 unwind label %17

17:                                               ; preds = %16
  %18 = landingpad { ptr, i32 }
          cleanup
  invoke void @_ZN4absl12lts_202407225Mutex6UnlockEv(ptr noundef nonnull align 8 dereferenceable(8) %4)
          to label %_ZN4absl12lts_202407229MutexLockD2Ev.exit unwind label %19

19:                                               ; preds = %17
  %20 = landingpad { ptr, i32 }
          catch ptr null
  %21 = extractvalue { ptr, i32 } %20, 0
  tail call void @__clang_call_terminate(ptr %21) #32
  unreachable

_ZN4absl12lts_202407229MutexLockD2Ev.exit:        ; preds = %17
  resume { ptr, i32 } %18

22:                                               ; preds = %16, %13
  store i8 1, ptr %5, align 8, !tbaa !50
  br label %23

23:                                               ; preds = %3, %22
  invoke void @_ZN4absl12lts_202407225Mutex6UnlockEv(ptr noundef nonnull align 8 dereferenceable(8) %4)
          to label %_ZN4absl12lts_202407229MutexLockD2Ev.exit10 unwind label %24

24:                                               ; preds = %23
  %25 = landingpad { ptr, i32 }
          catch ptr null
  %26 = extractvalue { ptr, i32 } %25, 0
  tail call void @__clang_call_terminate(ptr %26) #32
  unreachable

_ZN4absl12lts_202407229MutexLockD2Ev.exit10:      ; preds = %23
  ret void
}